; Function Attrs: nounwind uwtable
define hidden ptr @lxb_html_parse_chunk_begin(ptr nocapture noundef %0) local_unnamed_addr #0 {
  %2 = getelementptr inbounds i8, ptr %0, i64 40
  %3 = load i32, ptr %2, align 8
  %.not = icmp eq i32 %3, 0
  br i1 %.not, label %9, label %4

4:                                                ; preds = %1
  %5 = getelementptr inbounds i8, ptr %0, i64 16
  tail call void @llvm.memset.p0.i64(ptr noundef nonnull align 8 dereferenceable(28) %5, i8 0, i64 28, i1 false)
  %6 = load ptr, ptr %0, align 8
  tail call void @lxb_html_tokenizer_clean(ptr noundef %6) #7
  %7 = getelementptr inbounds i8, ptr %0, i64 8
  %8 = load ptr, ptr %7, align 8
  tail call void @lxb_html_tree_clean(ptr noundef %8) #7
  br label %9

9:                                                ; preds = %4, %1
  %10 = tail call ptr @lxb_html_document_interface_create(ptr noundef null) #7
  %11 = icmp eq ptr %10, null
  br i1 %11, label %12, label %15

12:                                               ; preds = %9
  store i32 4, ptr %2, align 8
  %13 = getelementptr inbounds i8, ptr %0, i64 44
  store i32 2, ptr %13, align 4
  %14 = tail call ptr @lxb_html_document_destroy(ptr noundef null) #7
  br label %45

15:                                               ; preds = %9
  %16 = getelementptr inbounds i8, ptr %0, i64 8
  %17 = load ptr, ptr %16, align 8
  %18 = getelementptr inbounds i8, ptr %17, i64 82
  %19 = load i8, ptr %18, align 2
  %20 = and i8 %19, 1
  %21 = getelementptr inbounds i8, ptr %10, i64 250
  store i8 %20, ptr %21, align 2
  store i32 1, ptr %2, align 8
  %22 = load ptr, ptr %0, align 8
  %23 = getelementptr i8, ptr %22, i64 96
  %.val.i = load ptr, ptr %23, align 8
  %24 = getelementptr inbounds i8, ptr %0, i64 16
  store ptr %.val.i, ptr %24, align 8
  %25 = load ptr, ptr %16, align 8
  store ptr %25, ptr %23, align 8
  %26 = load ptr, ptr %0, align 8
  %27 = getelementptr inbounds i8, ptr %10, i64 200
  %28 = load ptr, ptr %27, align 8
  %29 = getelementptr inbounds i8, ptr %26, i64 32
  store ptr %28, ptr %29, align 8
  %30 = load ptr, ptr %0, align 8
  %31 = getelementptr inbounds i8, ptr %10, i64 208
  %32 = load ptr, ptr %31, align 8
  %33 = getelementptr inbounds i8, ptr %30, i64 40
  store ptr %32, ptr %33, align 8
  %34 = load ptr, ptr %0, align 8
  %35 = getelementptr inbounds i8, ptr %10, i64 192
  %36 = load ptr, ptr %35, align 8
  %37 = getelementptr inbounds i8, ptr %34, i64 48
  store ptr %36, ptr %37, align 8
  %38 = load ptr, ptr %16, align 8
  %39 = getelementptr inbounds i8, ptr %38, i64 8
  store ptr %10, ptr %39, align 8
  %40 = load ptr, ptr %38, align 8
  %41 = tail call i32 @lxb_html_tokenizer_begin(ptr noundef %40) #7
  %42 = getelementptr inbounds i8, ptr %0, i64 44
  %.not.i = icmp eq i32 %41, 0
  br i1 %.not.i, label %lxb_html_parse_chunk_prepare.exit.thread, label %43

lxb_html_parse_chunk_prepare.exit.thread:         ; preds = %15
  store i32 0, ptr %42, align 4
  br label %45

43:                                               ; preds = %15
  store i32 4, ptr %2, align 8
  store i32 %41, ptr %42, align 4
  %44 = tail call ptr @lxb_html_document_destroy(ptr noundef nonnull %10) #7
  br label %45

45:                                               ; preds = %lxb_html_parse_chunk_prepare.exit.thread, %43, %12
  %.0 = phi ptr [ %14, %12 ], [ %44, %43 ], [ %10, %lxb_html_parse_chunk_prepare.exit.thread ]
  ret ptr %.0
}